; Function Attrs: nounwind uwtable
define dso_local range(i32 -1, 1) i32 @pg_hmac_init(ptr noundef %0, ptr noundef %1, i64 noundef %2) local_unnamed_addr #0 {
  %4 = icmp eq ptr %0, null
  br i1 %4, label %.thread, label %5

5:                                                ; preds = %3
  %6 = getelementptr inbounds nuw i8, ptr %0, i64 28
  %7 = load i32, ptr %6, align 4
  %8 = getelementptr inbounds nuw i8, ptr %0, i64 24
  %9 = load i32, ptr %8, align 8
  %10 = getelementptr inbounds nuw i8, ptr %0, i64 160
  %11 = sext i32 %9 to i64
  tail call void @llvm.memset.p0.i64(ptr nonnull align 8 %10, i8 92, i64 %11, i1 false)
  %12 = getelementptr inbounds nuw i8, ptr %0, i64 32
  tail call void @llvm.memset.p0.i64(ptr nonnull align 8 %12, i8 54, i64 %11, i1 false)
  %13 = icmp ugt i64 %2, %11
  br i1 %13, label %14, label %41

14:                                               ; preds = %5
  %15 = sext i32 %7 to i64
  %16 = tail call ptr @palloc(i64 noundef %15) #5
  %17 = icmp eq ptr %16, null
  br i1 %17, label %18, label %20

18:                                               ; preds = %14
  %19 = getelementptr inbounds nuw i8, ptr %0, i64 12
  store i32 1, ptr %19, align 4
  br label %.thread

20:                                               ; preds = %14
  tail call void @llvm.memset.p0.i64(ptr nonnull align 1 %16, i8 0, i64 %15, i1 false)
  %21 = getelementptr inbounds nuw i8, ptr %0, i64 8
  %22 = load i32, ptr %21, align 8
  %23 = tail call ptr @pg_cryptohash_create(i32 noundef %22) #5
  %24 = icmp eq ptr %23, null
  br i1 %24, label %25, label %27

25:                                               ; preds = %20
  %26 = getelementptr inbounds nuw i8, ptr %0, i64 12
  store i32 1, ptr %26, align 4
  tail call void @pfree(ptr noundef nonnull %16) #5
  br label %.thread

27:                                               ; preds = %20
  %28 = tail call i32 @pg_cryptohash_init(ptr noundef nonnull %23) #5
  %29 = icmp slt i32 %28, 0
  br i1 %29, label %36, label %30

30:                                               ; preds = %27
  %31 = tail call i32 @pg_cryptohash_update(ptr noundef nonnull %23, ptr noundef %1, i64 noundef %2) #5
  %32 = icmp slt i32 %31, 0
  br i1 %32, label %36, label %33

33:                                               ; preds = %30
  %34 = tail call i32 @pg_cryptohash_final(ptr noundef nonnull %23, ptr noundef nonnull %16, i64 noundef %15) #5
  %35 = icmp slt i32 %34, 0
  br i1 %35, label %36, label %40

36:                                               ; preds = %33, %30, %27
  %37 = getelementptr inbounds nuw i8, ptr %0, i64 12
  store i32 2, ptr %37, align 4
  %38 = tail call ptr @pg_cryptohash_error(ptr noundef nonnull %23) #5
  %39 = getelementptr inbounds nuw i8, ptr %0, i64 16
  store ptr %38, ptr %39, align 8
  tail call void @pg_cryptohash_free(ptr noundef nonnull %23) #5
  tail call void @pfree(ptr noundef nonnull %16) #5
  br label %.thread

40:                                               ; preds = %33
  tail call void @pg_cryptohash_free(ptr noundef nonnull %23) #5
  br label %41

41:                                               ; preds = %40, %5
  %.060 = phi i64 [ %15, %40 ], [ %2, %5 ]
  %.058 = phi ptr [ %16, %40 ], [ %1, %5 ]
  %.057 = phi ptr [ %16, %40 ], [ null, %5 ]
  %.not73 = icmp eq i64 %.060, 0
  br i1 %.not73, label %._crit_edge, label %.lr.ph

.lr.ph:                                           ; preds = %41, %.lr.ph
  %42 = phi i64 [ %53, %.lr.ph ], [ 0, %41 ]
  %.06272 = phi i32 [ %52, %.lr.ph ], [ 0, %41 ]
  %43 = getelementptr inbounds i8, ptr %.058, i64 %42
  %44 = load i8, ptr %43, align 1
  %45 = getelementptr inbounds [128 x i8], ptr %12, i64 0, i64 %42
  %46 = load i8, ptr %45, align 1
  %47 = xor i8 %46, %44
  store i8 %47, ptr %45, align 1
  %48 = load i8, ptr %43, align 1
  %49 = getelementptr inbounds [128 x i8], ptr %10, i64 0, i64 %42
  %50 = load i8, ptr %49, align 1
  %51 = xor i8 %50, %48
  store i8 %51, ptr %49, align 1
  %52 = add i32 %.06272, 1
  %53 = sext i32 %52 to i64
  %54 = icmp ugt i64 %.060, %53
  br i1 %54, label %.lr.ph, label %._crit_edge, !llvm.loop !4

._crit_edge:                                      ; preds = %.lr.ph, %41
  %55 = load ptr, ptr %0, align 8
  %56 = tail call i32 @pg_cryptohash_init(ptr noundef %55) #5
  %57 = icmp slt i32 %56, 0
  br i1 %57, label %64, label %58

58:                                               ; preds = %._crit_edge
  %59 = load ptr, ptr %0, align 8
  %60 = load i32, ptr %8, align 8
  %61 = sext i32 %60 to i64
  %62 = tail call i32 @pg_cryptohash_update(ptr noundef %59, ptr noundef nonnull %12, i64 noundef %61) #5
  %63 = icmp slt i32 %62, 0
  br i1 %63, label %64, label %70

64:                                               ; preds = %58, %._crit_edge
  %65 = getelementptr inbounds nuw i8, ptr %0, i64 12
  store i32 2, ptr %65, align 4
  %66 = load ptr, ptr %0, align 8
  %67 = tail call ptr @pg_cryptohash_error(ptr noundef %66) #5
  %68 = getelementptr inbounds nuw i8, ptr %0, i64 16
  store ptr %67, ptr %68, align 8
  %.not68 = icmp eq ptr %.057, null
  br i1 %.not68, label %.thread, label %69

69:                                               ; preds = %64
  tail call void @pfree(ptr noundef nonnull %.057) #5
  br label %.thread

70:                                               ; preds = %58
  %.not = icmp eq ptr %.057, null
  br i1 %.not, label %.thread, label %71

71:                                               ; preds = %70
  tail call void @pfree(ptr noundef nonnull %.057) #5
  br label %.thread

.thread:                                          ; preds = %36, %25, %18, %70, %71, %64, %69, %3
  %.0 = phi i32 [ -1, %3 ], [ -1, %69 ], [ -1, %64 ], [ 0, %71 ], [ 0, %70 ], [ -1, %18 ], [ -1, %25 ], [ -1, %36 ]
  ret i32 %.0
}